target datalayout = "e-m:e-p270:32:32-p271:32:32-p272:64:64-i64:64-i128:128-f80:128-n8:16:32:64-S128"
target triple = "x86_64-pc-linux-gnu"

; Function Attrs: nounwind uwtable
define internal i32 @get_v_length(i64 noundef %0) #0 {
  %2 = alloca i64, align 8
  %3 = alloca i32, align 4
  store i64 %0, ptr %2, align 8, !tbaa !95
  call void @llvm.lifetime.start.p0(i64 4, ptr %3) #12
  store i32 1, ptr %3, align 4, !tbaa !44
  br label %4

4:                                                ; preds = %8, %1
  %5 = load i64, ptr %2, align 8, !tbaa !95
  %6 = lshr i64 %5, 7
  store i64 %6, ptr %2, align 8, !tbaa !95
  %7 = icmp ne i64 %6, 0
  br i1 %7, label %8, label %11

8:                                                ; preds = %4
  %9 = load i32, ptr %3, align 4, !tbaa !44
  %10 = add nsw i32 %9, 1
  store i32 %10, ptr %3, align 4, !tbaa !44
  br label %4, !llvm.loop !192

11:                                               ; preds = %4
  %12 = load i32, ptr %3, align 4, !tbaa !44
  call void @llvm.lifetime.end.p0(i64 4, ptr %3) #12
  ret i32 %12
}

; Function Attrs: nounwind uwtable
define internal void @put_v(ptr noundef %0, i64 noundef %1) #0 {
  %3 = alloca ptr, align 8
  %4 = alloca i64, align 8
  %5 = alloca i32, align 4
  store ptr %0, ptr %3, align 8, !tbaa !29
  store i64 %1, ptr %4, align 8, !tbaa !95
  call void @llvm.lifetime.start.p0(i64 4, ptr %5) #12
  %6 = load i64, ptr %4, align 8, !tbaa !95
  %7 = call i32 @get_v_length(i64 noundef %6)
  store i32 %7, ptr %5, align 4, !tbaa !44
  br label %8

8:                                                ; preds = %12, %2
  %9 = load i32, ptr %5, align 4, !tbaa !44
  %10 = add nsw i32 %9, -1
  store i32 %10, ptr %5, align 4, !tbaa !44
  %11 = icmp sgt i32 %10, 0
  br i1 %11, label %12, label %22

12:                                               ; preds = %8
  %13 = load ptr, ptr %3, align 8, !tbaa !29
  %14 = load i64, ptr %4, align 8, !tbaa !95
  %15 = load i32, ptr %5, align 4, !tbaa !44
  %16 = mul nsw i32 7, %15
  %17 = zext i32 %16 to i64
  %18 = lshr i64 %14, %17
  %19 = trunc i64 %18 to i8
  %20 = zext i8 %19 to i32
  %21 = or i32 128, %20
  call void @avio_w8(ptr noundef %13, i32 noundef %21)
  br label %8, !llvm.loop !191

22:                                               ; preds = %8
  %23 = load ptr, ptr %3, align 8, !tbaa !29
  %24 = load i64, ptr %4, align 8, !tbaa !95
  %25 = and i64 %24, 127
  %26 = trunc i64 %25 to i32
  call void @avio_w8(ptr noundef %23, i32 noundef %26)
  call void @llvm.lifetime.end.p0(i64 4, ptr %5) #12
  ret void
}

; Function Attrs: nounwind uwtable
define internal void @put_s(ptr noundef %0, i64 noundef %1) #0 {
  %3 = alloca ptr, align 8
  %4 = alloca i64, align 8
  store ptr %0, ptr %3, align 8, !tbaa !29
  store i64 %1, ptr %4, align 8, !tbaa !95
  %5 = load ptr, ptr %3, align 8, !tbaa !29
  %6 = load i64, ptr %4, align 8, !tbaa !95
  %7 = icmp sge i64 %6, 0
  br i1 %7, label %8, label %10

8:                                                ; preds = %2
  %9 = load i64, ptr %4, align 8, !tbaa !95
  br label %13

10:                                               ; preds = %2
  %11 = load i64, ptr %4, align 8, !tbaa !95
  %12 = sub nsw i64 0, %11
  br label %13

13:                                               ; preds = %10, %8
  %14 = phi i64 [ %9, %8 ], [ %12, %10 ]
  %15 = mul nsw i64 2, %14
  %16 = load i64, ptr %4, align 8, !tbaa !95
  %17 = icmp sgt i64 %16, 0
  %18 = zext i1 %17 to i32
  %19 = sext i32 %18 to i64
  %20 = sub nsw i64 %15, %19
  call void @put_v(ptr noundef %5, i64 noundef %20)
  ret void
}

; Function Attrs: nounwind uwtable
define internal void @put_str(ptr noundef %0, ptr noundef %1) #0 {
  %3 = alloca ptr, align 8
  %4 = alloca ptr, align 8
  %5 = alloca i64, align 8
  store ptr %0, ptr %3, align 8, !tbaa !29
  store ptr %1, ptr %4, align 8, !tbaa !89
  call void @llvm.lifetime.start.p0(i64 8, ptr %5) #12
  %6 = load ptr, ptr %4, align 8, !tbaa !89
  %7 = call i64 @strlen(ptr noundef %6) #13
  store i64 %7, ptr %5, align 8, !tbaa !95
  %8 = load ptr, ptr %3, align 8, !tbaa !29
  %9 = load i64, ptr %5, align 8, !tbaa !95
  call void @put_v(ptr noundef %8, i64 noundef %9)
  %10 = load ptr, ptr %3, align 8, !tbaa !29
  %11 = load ptr, ptr %4, align 8, !tbaa !89
  %12 = load i64, ptr %5, align 8, !tbaa !95
  %13 = trunc i64 %12 to i32
  call void @avio_write(ptr noundef %10, ptr noundef %11, i32 noundef %13)
  call void @llvm.lifetime.end.p0(i64 8, ptr %5) #12
  ret void
}

; Function Attrs: nounwind uwtable
define internal i32 @add_info(ptr noundef %0, ptr noundef %1, ptr noundef %2) #0 {
  %4 = alloca ptr, align 8
  %5 = alloca ptr, align 8
  %6 = alloca ptr, align 8
  store ptr %0, ptr %4, align 8, !tbaa !29
  store ptr %1, ptr %5, align 8, !tbaa !89
  store ptr %2, ptr %6, align 8, !tbaa !89
  %7 = load ptr, ptr %4, align 8, !tbaa !29
  %8 = load ptr, ptr %5, align 8, !tbaa !89
  call void @put_str(ptr noundef %7, ptr noundef %8)
  %9 = load ptr, ptr %4, align 8, !tbaa !29
  call void @put_s(ptr noundef %9, i64 noundef -1)
  %10 = load ptr, ptr %4, align 8, !tbaa !29
  %11 = load ptr, ptr %6, align 8, !tbaa !89
  call void @put_str(ptr noundef %10, ptr noundef %11)
  ret i32 1
}