; Function Attrs: nounwind uwtable
define internal fastcc void @add_info(ptr noundef %0, ptr noundef %1, ptr noundef %2) unnamed_addr #0 {
  %4 = tail call i64 @strlen(ptr noundef nonnull dereferenceable(1) %1) #15
  %.not5.i.i.i = icmp ult i64 %4, 128
  br i1 %.not5.i.i.i, label %put_str.exit, label %.lr.ph.i.i.i

.lr.ph.i.i.i:                                     ; preds = %3, %.lr.ph.i.i.i
  %.07.i.i.i = phi i32 [ %6, %.lr.ph.i.i.i ], [ 1, %3 ]
  %.036.i.i.i = phi i64 [ %5, %.lr.ph.i.i.i ], [ %4, %3 ]
  %5 = lshr i64 %.036.i.i.i, 7
  %6 = add nuw nsw i32 %.07.i.i.i, 1
  %.not.i.i.i = icmp ult i64 %.036.i.i.i, 16384
  br i1 %.not.i.i.i, label %.lr.ph.preheader.i.i, label %.lr.ph.i.i.i, !llvm.loop !129

.lr.ph.preheader.i.i:                             ; preds = %.lr.ph.i.i.i
  %7 = zext nneg i32 %6 to i64
  br label %.lr.ph.i.i

.lr.ph.i.i:                                       ; preds = %.lr.ph.i.i, %.lr.ph.preheader.i.i
  %indvars.iv.i.i = phi i64 [ %7, %.lr.ph.preheader.i.i ], [ %indvars.iv.next.i.i, %.lr.ph.i.i ]
  %indvars.iv.next.i.i = add nsw i64 %indvars.iv.i.i, -1
  %8 = mul nsw i64 %indvars.iv.next.i.i, 7
  %9 = lshr i64 %4, %8
  %10 = trunc i64 %9 to i32
  %11 = and i32 %10, 127
  %12 = or disjoint i32 %11, 128
  tail call void @avio_w8(ptr noundef %0, i32 noundef %12) #12
  %13 = icmp samesign ugt i64 %indvars.iv.i.i, 2
  br i1 %13, label %.lr.ph.i.i, label %put_str.exit, !llvm.loop !130

put_str.exit:                                     ; preds = %.lr.ph.i.i, %3
  %14 = trunc i64 %4 to i32
  %15 = and i32 %14, 127
  tail call void @avio_w8(ptr noundef %0, i32 noundef %15) #12
  tail call void @avio_write(ptr noundef %0, ptr noundef nonnull %1, i32 noundef %14) #12
  tail call void @avio_w8(ptr noundef %0, i32 noundef 2) #12
  %16 = tail call i64 @strlen(ptr noundef nonnull dereferenceable(1) %2) #15
  %.not5.i.i.i5 = icmp ult i64 %16, 128
  br i1 %.not5.i.i.i5, label %put_str.exit14, label %.lr.ph.i.i.i6

.lr.ph.i.i.i6:                                    ; preds = %put_str.exit, %.lr.ph.i.i.i6
  %.07.i.i.i7 = phi i32 [ %18, %.lr.ph.i.i.i6 ], [ 1, %put_str.exit ]
  %.036.i.i.i8 = phi i64 [ %17, %.lr.ph.i.i.i6 ], [ %16, %put_str.exit ]
  %17 = lshr i64 %.036.i.i.i8, 7
  %18 = add nuw nsw i32 %.07.i.i.i7, 1
  %.not.i.i.i9 = icmp ult i64 %.036.i.i.i8, 16384
  br i1 %.not.i.i.i9, label %.lr.ph.preheader.i.i10, label %.lr.ph.i.i.i6, !llvm.loop !129

.lr.ph.preheader.i.i10:                           ; preds = %.lr.ph.i.i.i6
  %19 = zext nneg i32 %18 to i64
  br label %.lr.ph.i.i11

.lr.ph.i.i11:                                     ; preds = %.lr.ph.i.i11, %.lr.ph.preheader.i.i10
  %indvars.iv.i.i12 = phi i64 [ %19, %.lr.ph.preheader.i.i10 ], [ %indvars.iv.next.i.i13, %.lr.ph.i.i11 ]
  %indvars.iv.next.i.i13 = add nsw i64 %indvars.iv.i.i12, -1
  %20 = mul nsw i64 %indvars.iv.next.i.i13, 7
  %21 = lshr i64 %16, %20
  %22 = trunc i64 %21 to i32
  %23 = and i32 %22, 127
  %24 = or disjoint i32 %23, 128
  tail call void @avio_w8(ptr noundef %0, i32 noundef %24) #12
  %25 = icmp samesign ugt i64 %indvars.iv.i.i12, 2
  br i1 %25, label %.lr.ph.i.i11, label %put_str.exit14, !llvm.loop !130

put_str.exit14:                                   ; preds = %.lr.ph.i.i11, %put_str.exit
  %26 = trunc i64 %16 to i32
  %27 = and i32 %26, 127
  tail call void @avio_w8(ptr noundef %0, i32 noundef %27) #12
  tail call void @avio_write(ptr noundef %0, ptr noundef nonnull %2, i32 noundef %26) #12
  ret void
}